target datalayout = "e-m:e-p270:32:32-p271:32:32-p272:64:64-i64:64-i128:128-f80:128-n8:16:32:64-S128"
target triple = "x86_64-pc-linux-gnu"

%struct.AVFilterContext = type { ptr, ptr, ptr, ptr, ptr, i32, ptr, ptr, i32, ptr, ptr, i32, i32, ptr, ptr, ptr, ptr, i32, ptr, i32, i32 }
%struct.AudioDynamicEqualizerContext = type { ptr, double, double, double, double, double, double, double, double, double, double, double, double, double, double, double, i32, i32, i32, i32, i32, i32, i32, ptr, ptr, [3 x double], [3 x double], [3 x float], [3 x float], ptr }
%struct.AVFilterLink = type { ptr, ptr, ptr, ptr, i32, i32, i32, i32, %struct.AVRational, i32, i32, i32, %struct.AVChannelLayout, %struct.AVRational, ptr, i32, %struct.AVFilterFormatsConfig, %struct.AVFilterFormatsConfig }
%struct.AVChannelLayout = type { i32, i32, %union.anon.1, ptr }
%union.anon.1 = type { i64 }
%struct.AVRational = type { i32, i32 }
%struct.AVFilterFormatsConfig = type { ptr, ptr, ptr, ptr, ptr }

; Function Attrs: nounwind uwtable
define internal double @get_coef(double noundef %0, double noundef %1) #1 {
  %3 = alloca double, align 8
  %4 = alloca double, align 8
  store double %0, ptr %3, align 8, !tbaa !70
  store double %1, ptr %4, align 8, !tbaa !70
  %5 = load double, ptr %3, align 8, !tbaa !70
  %6 = fmul nsz double 1.000000e-03, %5
  %7 = load double, ptr %4, align 8, !tbaa !70
  %8 = fmul nsz double %6, %7
  %9 = fdiv nsz double -1.000000e+00, %8
  %10 = call nsz double @llvm.exp.f64(double %9)
  %11 = fsub nsz double 1.000000e+00, %10
  ret double %11
}

; Function Attrs: nounwind uwtable
define internal i32 @filter_prepare_double(ptr noundef %0) #1 {
  %2 = alloca ptr, align 8
  %3 = alloca ptr, align 8
  %4 = alloca double, align 8
  %5 = alloca double, align 8
  %6 = alloca double, align 8
  %7 = alloca double, align 8
  %8 = alloca i32, align 4
  %9 = alloca ptr, align 8
  %10 = alloca ptr, align 8
  %11 = alloca double, align 8
  store ptr %0, ptr %2, align 8, !tbaa !4
  call void @llvm.lifetime.start.p0(i64 8, ptr %3) #8
  %12 = load ptr, ptr %2, align 8, !tbaa !4
  %13 = getelementptr inbounds nuw %struct.AVFilterContext, ptr %12, i32 0, i32 9
  %14 = load ptr, ptr %13, align 8, !tbaa !9
  store ptr %14, ptr %3, align 8, !tbaa !22
  call void @llvm.lifetime.start.p0(i64 8, ptr %4) #8
  %15 = load ptr, ptr %2, align 8, !tbaa !4
  %16 = getelementptr inbounds nuw %struct.AVFilterContext, ptr %15, i32 0, i32 4
  %17 = load ptr, ptr %16, align 8, !tbaa !69
  %18 = getelementptr inbounds ptr, ptr %17, i64 0
  %19 = load ptr, ptr %18, align 8, !tbaa !36
  %20 = getelementptr inbounds nuw %struct.AVFilterLink, ptr %19, i32 0, i32 11
  %21 = load i32, ptr %20, align 8, !tbaa !63
  %22 = sitofp i32 %21 to double
  store double %22, ptr %4, align 8, !tbaa !70
  call void @llvm.lifetime.start.p0(i64 8, ptr %5) #8
  %23 = load ptr, ptr %3, align 8, !tbaa !22
  %24 = getelementptr inbounds nuw %struct.AudioDynamicEqualizerContext, ptr %23, i32 0, i32 3
  %25 = load double, ptr %24, align 8, !tbaa !71
  %26 = load double, ptr %4, align 8, !tbaa !70
  %27 = fmul nsz double %26, 5.000000e-01
  %28 = call nsz double @llvm.minnum.f64(double %25, double %27)
  store double %28, ptr %5, align 8, !tbaa !70
  call void @llvm.lifetime.start.p0(i64 8, ptr %6) #8
  %29 = load double, ptr %5, align 8, !tbaa !70
  %30 = fmul nsz double 0x400921FB54442D18, %29
  %31 = load double, ptr %4, align 8, !tbaa !70
  %32 = fdiv nsz double %30, %31
  %33 = call nsz double @llvm.tan.f64(double %32)
  store double %33, ptr %6, align 8, !tbaa !70
  call void @llvm.lifetime.start.p0(i64 8, ptr %7) #8
  %34 = load ptr, ptr %3, align 8, !tbaa !22
  %35 = getelementptr inbounds nuw %struct.AudioDynamicEqualizerContext, ptr %34, i32 0, i32 4
  %36 = load double, ptr %35, align 8, !tbaa !72
  store double %36, ptr %7, align 8, !tbaa !70
  call void @llvm.lifetime.start.p0(i64 4, ptr %8) #8
  %37 = load ptr, ptr %3, align 8, !tbaa !22
  %38 = getelementptr inbounds nuw %struct.AudioDynamicEqualizerContext, ptr %37, i32 0, i32 19
  %39 = load i32, ptr %38, align 4, !tbaa !73
  store i32 %39, ptr %8, align 4, !tbaa !24
  call void @llvm.lifetime.start.p0(i64 8, ptr %9) #8
  %40 = load ptr, ptr %3, align 8, !tbaa !22
  %41 = getelementptr inbounds nuw %struct.AudioDynamicEqualizerContext, ptr %40, i32 0, i32 25
  %42 = getelementptr inbounds [3 x double], ptr %41, i64 0, i64 0
  store ptr %42, ptr %9, align 8, !tbaa !74
  call void @llvm.lifetime.start.p0(i64 8, ptr %10) #8
  %43 = load ptr, ptr %3, align 8, !tbaa !22
  %44 = getelementptr inbounds nuw %struct.AudioDynamicEqualizerContext, ptr %43, i32 0, i32 26
  %45 = getelementptr inbounds [3 x double], ptr %44, i64 0, i64 0
  store ptr %45, ptr %10, align 8, !tbaa !74
  call void @llvm.lifetime.start.p0(i64 8, ptr %11) #8
  %46 = load ptr, ptr %3, align 8, !tbaa !22
  %47 = getelementptr inbounds nuw %struct.AudioDynamicEqualizerContext, ptr %46, i32 0, i32 1
  %48 = load double, ptr %47, align 8, !tbaa !75
  %49 = call nsz double @llvm.log10.f64(double %48)
  %50 = fmul nsz double 2.000000e+01, %49
  %51 = load ptr, ptr %3, align 8, !tbaa !22
  %52 = getelementptr inbounds nuw %struct.AudioDynamicEqualizerContext, ptr %51, i32 0, i32 2
  store double %50, ptr %52, align 8, !tbaa !76
  %53 = load ptr, ptr %3, align 8, !tbaa !22
  %54 = getelementptr inbounds nuw %struct.AudioDynamicEqualizerContext, ptr %53, i32 0, i32 10
  %55 = load double, ptr %54, align 8, !tbaa !77
  %56 = load double, ptr %4, align 8, !tbaa !70
  %57 = call nsz double @get_coef(double noundef %55, double noundef %56)
  %58 = load ptr, ptr %3, align 8, !tbaa !22
  %59 = getelementptr inbounds nuw %struct.AudioDynamicEqualizerContext, ptr %58, i32 0, i32 12
  store double %57, ptr %59, align 8, !tbaa !78
  %60 = load ptr, ptr %3, align 8, !tbaa !22
  %61 = getelementptr inbounds nuw %struct.AudioDynamicEqualizerContext, ptr %60, i32 0, i32 11
  %62 = load double, ptr %61, align 8, !tbaa !79
  %63 = load double, ptr %4, align 8, !tbaa !70
  %64 = call nsz double @get_coef(double noundef %62, double noundef %63)
  %65 = load ptr, ptr %3, align 8, !tbaa !22
  %66 = getelementptr inbounds nuw %struct.AudioDynamicEqualizerContext, ptr %65, i32 0, i32 13
  store double %64, ptr %66, align 8, !tbaa !80
  %67 = load ptr, ptr %3, align 8, !tbaa !22
  %68 = getelementptr inbounds nuw %struct.AudioDynamicEqualizerContext, ptr %67, i32 0, i32 12
  %69 = load double, ptr %68, align 8, !tbaa !78
  %70 = fmul nsz double %69, 2.500000e-01
  %71 = load ptr, ptr %3, align 8, !tbaa !22
  %72 = getelementptr inbounds nuw %struct.AudioDynamicEqualizerContext, ptr %71, i32 0, i32 14
  store double %70, ptr %72, align 8, !tbaa !81
  %73 = load ptr, ptr %3, align 8, !tbaa !22
  %74 = getelementptr inbounds nuw %struct.AudioDynamicEqualizerContext, ptr %73, i32 0, i32 13
  %75 = load double, ptr %74, align 8, !tbaa !80
  %76 = fmul nsz double %75, 2.500000e-01
  %77 = load ptr, ptr %3, align 8, !tbaa !22
  %78 = getelementptr inbounds nuw %struct.AudioDynamicEqualizerContext, ptr %77, i32 0, i32 15
  store double %76, ptr %78, align 8, !tbaa !82
  %79 = load i32, ptr %8, align 4, !tbaa !24
  switch i32 %79, label %209 [
    i32 0, label %80
    i32 1, label %112
    i32 2, label %143
    i32 3, label %176
  ]

80:                                               ; preds = %1
  %81 = load double, ptr %7, align 8, !tbaa !70
  %82 = fdiv nsz double 1.000000e+00, %81
  store double %82, ptr %11, align 8, !tbaa !70
  %83 = load double, ptr %6, align 8, !tbaa !70
  %84 = load double, ptr %6, align 8, !tbaa !70
  %85 = load double, ptr %11, align 8, !tbaa !70
  %86 = fadd nsz double %84, %85
  %87 = call nsz double @llvm.fmuladd.f64(double %83, double %86, double 1.000000e+00)
  %88 = fdiv nsz double 1.000000e+00, %87
  %89 = load ptr, ptr %9, align 8, !tbaa !74
  %90 = getelementptr inbounds double, ptr %89, i64 0
  store double %88, ptr %90, align 8, !tbaa !70
  %91 = load double, ptr %6, align 8, !tbaa !70
  %92 = load ptr, ptr %9, align 8, !tbaa !74
  %93 = getelementptr inbounds double, ptr %92, i64 0
  %94 = load double, ptr %93, align 8, !tbaa !70
  %95 = fmul nsz double %91, %94
  %96 = load ptr, ptr %9, align 8, !tbaa !74
  %97 = getelementptr inbounds double, ptr %96, i64 1
  store double %95, ptr %97, align 8, !tbaa !70
  %98 = load double, ptr %6, align 8, !tbaa !70
  %99 = load ptr, ptr %9, align 8, !tbaa !74
  %100 = getelementptr inbounds double, ptr %99, i64 1
  %101 = load double, ptr %100, align 8, !tbaa !70
  %102 = fmul nsz double %98, %101
  %103 = load ptr, ptr %9, align 8, !tbaa !74
  %104 = getelementptr inbounds double, ptr %103, i64 2
  store double %102, ptr %104, align 8, !tbaa !70
  %105 = load ptr, ptr %10, align 8, !tbaa !74
  %106 = getelementptr inbounds double, ptr %105, i64 0
  store double 0.000000e+00, ptr %106, align 8, !tbaa !70
  %107 = load double, ptr %11, align 8, !tbaa !70
  %108 = load ptr, ptr %10, align 8, !tbaa !74
  %109 = getelementptr inbounds double, ptr %108, i64 1
  store double %107, ptr %109, align 8, !tbaa !70
  %110 = load ptr, ptr %10, align 8, !tbaa !74
  %111 = getelementptr inbounds double, ptr %110, i64 2
  store double 0.000000e+00, ptr %111, align 8, !tbaa !70
  br label %209

112:                                              ; preds = %1
  %113 = load double, ptr %7, align 8, !tbaa !70
  %114 = fdiv nsz double 1.000000e+00, %113
  store double %114, ptr %11, align 8, !tbaa !70
  %115 = load double, ptr %6, align 8, !tbaa !70
  %116 = load double, ptr %6, align 8, !tbaa !70
  %117 = load double, ptr %11, align 8, !tbaa !70
  %118 = fadd nsz double %116, %117
  %119 = call nsz double @llvm.fmuladd.f64(double %115, double %118, double 1.000000e+00)
  %120 = fdiv nsz double 1.000000e+00, %119
  %121 = load ptr, ptr %9, align 8, !tbaa !74
  %122 = getelementptr inbounds double, ptr %121, i64 0
  store double %120, ptr %122, align 8, !tbaa !70
  %123 = load double, ptr %6, align 8, !tbaa !70
  %124 = load ptr, ptr %9, align 8, !tbaa !74
  %125 = getelementptr inbounds double, ptr %124, i64 0
  %126 = load double, ptr %125, align 8, !tbaa !70
  %127 = fmul nsz double %123, %126
  %128 = load ptr, ptr %9, align 8, !tbaa !74
  %129 = getelementptr inbounds double, ptr %128, i64 1
  store double %127, ptr %129, align 8, !tbaa !70
  %130 = load double, ptr %6, align 8, !tbaa !70
  %131 = load ptr, ptr %9, align 8, !tbaa !74
  %132 = getelementptr inbounds double, ptr %131, i64 1
  %133 = load double, ptr %132, align 8, !tbaa !70
  %134 = fmul nsz double %130, %133
  %135 = load ptr, ptr %9, align 8, !tbaa !74
  %136 = getelementptr inbounds double, ptr %135, i64 2
  store double %134, ptr %136, align 8, !tbaa !70
  %137 = load ptr, ptr %10, align 8, !tbaa !74
  %138 = getelementptr inbounds double, ptr %137, i64 0
  store double 0.000000e+00, ptr %138, align 8, !tbaa !70
  %139 = load ptr, ptr %10, align 8, !tbaa !74
  %140 = getelementptr inbounds double, ptr %139, i64 1
  store double 0.000000e+00, ptr %140, align 8, !tbaa !70
  %141 = load ptr, ptr %10, align 8, !tbaa !74
  %142 = getelementptr inbounds double, ptr %141, i64 2
  store double 1.000000e+00, ptr %142, align 8, !tbaa !70
  br label %209

143:                                              ; preds = %1
  %144 = load double, ptr %7, align 8, !tbaa !70
  %145 = fdiv nsz double 1.000000e+00, %144
  store double %145, ptr %11, align 8, !tbaa !70
  %146 = load double, ptr %6, align 8, !tbaa !70
  %147 = load double, ptr %6, align 8, !tbaa !70
  %148 = load double, ptr %11, align 8, !tbaa !70
  %149 = fadd nsz double %147, %148
  %150 = call nsz double @llvm.fmuladd.f64(double %146, double %149, double 1.000000e+00)
  %151 = fdiv nsz double 1.000000e+00, %150
  %152 = load ptr, ptr %9, align 8, !tbaa !74
  %153 = getelementptr inbounds double, ptr %152, i64 0
  store double %151, ptr %153, align 8, !tbaa !70
  %154 = load double, ptr %6, align 8, !tbaa !70
  %155 = load ptr, ptr %9, align 8, !tbaa !74
  %156 = getelementptr inbounds double, ptr %155, i64 0
  %157 = load double, ptr %156, align 8, !tbaa !70
  %158 = fmul nsz double %154, %157
  %159 = load ptr, ptr %9, align 8, !tbaa !74
  %160 = getelementptr inbounds double, ptr %159, i64 1
  store double %158, ptr %160, align 8, !tbaa !70
  %161 = load double, ptr %6, align 8, !tbaa !70
  %162 = load ptr, ptr %9, align 8, !tbaa !74
  %163 = getelementptr inbounds double, ptr %162, i64 1
  %164 = load double, ptr %163, align 8, !tbaa !70
  %165 = fmul nsz double %161, %164
  %166 = load ptr, ptr %9, align 8, !tbaa !74
  %167 = getelementptr inbounds double, ptr %166, i64 2
  store double %165, ptr %167, align 8, !tbaa !70
  %168 = load ptr, ptr %10, align 8, !tbaa !74
  %169 = getelementptr inbounds double, ptr %168, i64 0
  store double 0.000000e+00, ptr %169, align 8, !tbaa !70
  %170 = load double, ptr %11, align 8, !tbaa !70
  %171 = fneg nsz double %170
  %172 = load ptr, ptr %10, align 8, !tbaa !74
  %173 = getelementptr inbounds double, ptr %172, i64 1
  store double %171, ptr %173, align 8, !tbaa !70
  %174 = load ptr, ptr %10, align 8, !tbaa !74
  %175 = getelementptr inbounds double, ptr %174, i64 2
  store double -1.000000e+00, ptr %175, align 8, !tbaa !70
  br label %209

176:                                              ; preds = %1
  %177 = load double, ptr %7, align 8, !tbaa !70
  %178 = fdiv nsz double 1.000000e+00, %177
  store double %178, ptr %11, align 8, !tbaa !70
  %179 = load double, ptr %6, align 8, !tbaa !70
  %180 = load double, ptr %6, align 8, !tbaa !70
  %181 = load double, ptr %11, align 8, !tbaa !70
  %182 = fadd nsz double %180, %181
  %183 = call nsz double @llvm.fmuladd.f64(double %179, double %182, double 1.000000e+00)
  %184 = fdiv nsz double 1.000000e+00, %183
  %185 = load ptr, ptr %9, align 8, !tbaa !74
  %186 = getelementptr inbounds double, ptr %185, i64 0
  store double %184, ptr %186, align 8, !tbaa !70
  %187 = load double, ptr %6, align 8, !tbaa !70
  %188 = load ptr, ptr %9, align 8, !tbaa !74
  %189 = getelementptr inbounds double, ptr %188, i64 0
  %190 = load double, ptr %189, align 8, !tbaa !70
  %191 = fmul nsz double %187, %190
  %192 = load ptr, ptr %9, align 8, !tbaa !74
  %193 = getelementptr inbounds double, ptr %192, i64 1
  store double %191, ptr %193, align 8, !tbaa !70
  %194 = load double, ptr %6, align 8, !tbaa !70
  %195 = load ptr, ptr %9, align 8, !tbaa !74
  %196 = getelementptr inbounds double, ptr %195, i64 1
  %197 = load double, ptr %196, align 8, !tbaa !70
  %198 = fmul nsz double %194, %197
  %199 = load ptr, ptr %9, align 8, !tbaa !74
  %200 = getelementptr inbounds double, ptr %199, i64 2
  store double %198, ptr %200, align 8, !tbaa !70
  %201 = load ptr, ptr %10, align 8, !tbaa !74
  %202 = getelementptr inbounds double, ptr %201, i64 0
  store double 1.000000e+00, ptr %202, align 8, !tbaa !70
  %203 = load double, ptr %11, align 8, !tbaa !70
  %204 = fneg nsz double %203
  %205 = load ptr, ptr %10, align 8, !tbaa !74
  %206 = getelementptr inbounds double, ptr %205, i64 1
  store double %204, ptr %206, align 8, !tbaa !70
  %207 = load ptr, ptr %10, align 8, !tbaa !74
  %208 = getelementptr inbounds double, ptr %207, i64 2
  store double -2.000000e+00, ptr %208, align 8, !tbaa !70
  br label %209

209:                                              ; preds = %1, %176, %143, %112, %80
  call void @llvm.lifetime.end.p0(i64 8, ptr %11) #8
  call void @llvm.lifetime.end.p0(i64 8, ptr %10) #8
  call void @llvm.lifetime.end.p0(i64 8, ptr %9) #8
  call void @llvm.lifetime.end.p0(i64 4, ptr %8) #8
  call void @llvm.lifetime.end.p0(i64 8, ptr %7) #8
  call void @llvm.lifetime.end.p0(i64 8, ptr %6) #8
  call void @llvm.lifetime.end.p0(i64 8, ptr %5) #8
  call void @llvm.lifetime.end.p0(i64 8, ptr %4) #8
  call void @llvm.lifetime.end.p0(i64 8, ptr %3) #8
  ret i32 0
}