; Function Attrs: mustprogress nofree norecurse nosync nounwind willreturn memory(readwrite, inaccessiblemem: none) uwtable
define internal noundef i32 @filter_prepare_double(ptr noundef readonly captures(none) %0) #5 {
  %2 = getelementptr inbounds nuw i8, ptr %0, i64 72
  %3 = load ptr, ptr %2, align 8, !tbaa !4
  %4 = getelementptr inbounds nuw i8, ptr %0, i64 32
  %5 = load ptr, ptr %4, align 8, !tbaa !62
  %6 = load ptr, ptr %5, align 8, !tbaa !40
  %7 = getelementptr inbounds nuw i8, ptr %6, i64 64
  %8 = load i32, ptr %7, align 8, !tbaa !57
  %9 = sitofp i32 %8 to double
  %10 = getelementptr inbounds nuw i8, ptr %3, i64 24
  %11 = load double, ptr %10, align 8, !tbaa !63
  %12 = fmul nsz double %9, 5.000000e-01
  %13 = tail call nsz double @llvm.minnum.f64(double %11, double %12)
  %14 = fmul nsz double %13, 0x400921FB54442D18
  %15 = fdiv nsz double %14, %9
  %16 = tail call nsz double @llvm.tan.f64(double %15)
  %17 = getelementptr inbounds nuw i8, ptr %3, i64 32
  %18 = load double, ptr %17, align 8, !tbaa !64
  %19 = getelementptr inbounds nuw i8, ptr %3, i64 140
  %20 = load i32, ptr %19, align 4, !tbaa !65
  %21 = getelementptr inbounds nuw i8, ptr %3, i64 176
  %22 = getelementptr inbounds nuw i8, ptr %3, i64 200
  %23 = getelementptr inbounds nuw i8, ptr %3, i64 8
  %24 = load double, ptr %23, align 8, !tbaa !66
  %25 = tail call nsz double @llvm.log10.f64(double %24)
  %26 = fmul nsz double %25, 2.000000e+01
  %27 = getelementptr inbounds nuw i8, ptr %3, i64 16
  store double %26, ptr %27, align 8, !tbaa !67
  %28 = getelementptr inbounds nuw i8, ptr %3, i64 80
  %29 = load double, ptr %28, align 8, !tbaa !68
  %30 = fmul nsz double %29, 1.000000e-03
  %31 = fmul nsz double %30, %9
  %32 = fdiv nsz double -1.000000e+00, %31
  %33 = tail call nsz double @llvm.exp.f64(double %32)
  %34 = fsub nsz double 1.000000e+00, %33
  %35 = getelementptr inbounds nuw i8, ptr %3, i64 96
  store double %34, ptr %35, align 8, !tbaa !69
  %36 = getelementptr inbounds nuw i8, ptr %3, i64 88
  %37 = load double, ptr %36, align 8, !tbaa !70
  %38 = fmul nsz double %37, 1.000000e-03
  %39 = fmul nsz double %38, %9
  %40 = fdiv nsz double -1.000000e+00, %39
  %41 = tail call nsz double @llvm.exp.f64(double %40)
  %42 = fsub nsz double 1.000000e+00, %41
  %43 = getelementptr inbounds nuw i8, ptr %3, i64 104
  store double %42, ptr %43, align 8, !tbaa !71
  %44 = fmul nsz double %34, 2.500000e-01
  %45 = getelementptr inbounds nuw i8, ptr %3, i64 112
  store double %44, ptr %45, align 8, !tbaa !72
  %46 = fmul nsz double %42, 2.500000e-01
  %47 = getelementptr inbounds nuw i8, ptr %3, i64 120
  store double %46, ptr %47, align 8, !tbaa !73
  switch i32 %20, label %93 [
    i32 0, label %48
    i32 1, label %59
    i32 2, label %69
    i32 3, label %81
  ]

48:                                               ; preds = %1
  %49 = fdiv nsz double 1.000000e+00, %18
  %50 = fadd nsz double %49, %16
  %51 = tail call nsz double @llvm.fmuladd.f64(double %16, double %50, double 1.000000e+00)
  %52 = fdiv nsz double 1.000000e+00, %51
  store double %52, ptr %21, align 8, !tbaa !74
  %53 = fmul nsz double %16, %52
  %54 = getelementptr inbounds nuw i8, ptr %3, i64 184
  store double %53, ptr %54, align 8, !tbaa !74
  %55 = fmul nsz double %16, %53
  %56 = getelementptr inbounds nuw i8, ptr %3, i64 192
  store double %55, ptr %56, align 8, !tbaa !74
  store double 0.000000e+00, ptr %22, align 8, !tbaa !74
  %57 = getelementptr inbounds nuw i8, ptr %3, i64 208
  store double %49, ptr %57, align 8, !tbaa !74
  %58 = getelementptr inbounds nuw i8, ptr %3, i64 216
  store double 0.000000e+00, ptr %58, align 8, !tbaa !74
  br label %93

59:                                               ; preds = %1
  %60 = fdiv nsz double 1.000000e+00, %18
  %61 = fadd nsz double %60, %16
  %62 = tail call nsz double @llvm.fmuladd.f64(double %16, double %61, double 1.000000e+00)
  %63 = fdiv nsz double 1.000000e+00, %62
  store double %63, ptr %21, align 8, !tbaa !74
  %64 = fmul nsz double %16, %63
  %65 = getelementptr inbounds nuw i8, ptr %3, i64 184
  store double %64, ptr %65, align 8, !tbaa !74
  %66 = fmul nsz double %16, %64
  %67 = getelementptr inbounds nuw i8, ptr %3, i64 192
  store double %66, ptr %67, align 8, !tbaa !74
  %68 = getelementptr inbounds nuw i8, ptr %3, i64 216
  tail call void @llvm.memset.p0.i64(ptr noundef nonnull align 8 dereferenceable(16) %22, i8 0, i64 16, i1 false)
  store double 1.000000e+00, ptr %68, align 8, !tbaa !74
  br label %93

69:                                               ; preds = %1
  %70 = fdiv nsz double 1.000000e+00, %18
  %71 = fadd nsz double %70, %16
  %72 = tail call nsz double @llvm.fmuladd.f64(double %16, double %71, double 1.000000e+00)
  %73 = fdiv nsz double 1.000000e+00, %72
  store double %73, ptr %21, align 8, !tbaa !74
  %74 = fmul nsz double %16, %73
  %75 = getelementptr inbounds nuw i8, ptr %3, i64 184
  store double %74, ptr %75, align 8, !tbaa !74
  %76 = fmul nsz double %16, %74
  %77 = getelementptr inbounds nuw i8, ptr %3, i64 192
  store double %76, ptr %77, align 8, !tbaa !74
  store double 0.000000e+00, ptr %22, align 8, !tbaa !74
  %78 = fneg nsz double %70
  %79 = getelementptr inbounds nuw i8, ptr %3, i64 208
  store double %78, ptr %79, align 8, !tbaa !74
  %80 = getelementptr inbounds nuw i8, ptr %3, i64 216
  store double -1.000000e+00, ptr %80, align 8, !tbaa !74
  br label %93

81:                                               ; preds = %1
  %82 = fdiv nsz double 1.000000e+00, %18
  %83 = fadd nsz double %82, %16
  %84 = tail call nsz double @llvm.fmuladd.f64(double %16, double %83, double 1.000000e+00)
  %85 = fdiv nsz double 1.000000e+00, %84
  store double %85, ptr %21, align 8, !tbaa !74
  %86 = fmul nsz double %16, %85
  %87 = getelementptr inbounds nuw i8, ptr %3, i64 184
  store double %86, ptr %87, align 8, !tbaa !74
  %88 = fmul nsz double %16, %86
  %89 = getelementptr inbounds nuw i8, ptr %3, i64 192
  store double %88, ptr %89, align 8, !tbaa !74
  store double 1.000000e+00, ptr %22, align 8, !tbaa !74
  %90 = fneg nsz double %82
  %91 = getelementptr inbounds nuw i8, ptr %3, i64 208
  store double %90, ptr %91, align 8, !tbaa !74
  %92 = getelementptr inbounds nuw i8, ptr %3, i64 216
  store double -2.000000e+00, ptr %92, align 8, !tbaa !74
  br label %93

93:                                               ; preds = %81, %69, %59, %48, %1
  ret i32 0
}